target datalayout = "e-m:e-p270:32:32-p271:32:32-p272:64:64-i64:64-i128:128-f80:128-n8:16:32:64-S128"
target triple = "x86_64-pc-linux-gnu"

; Function Attrs: nounwind uwtable
define i32 @date2j(i32 noundef %0, i32 noundef %1, i32 noundef %2) #0 {
  %4 = alloca i32, align 4
  %5 = alloca i32, align 4
  %6 = alloca i32, align 4
  %7 = alloca i32, align 4
  %8 = alloca i32, align 4
  store i32 %0, ptr %4, align 4
  store i32 %1, ptr %5, align 4
  store i32 %2, ptr %6, align 4
  call void @llvm.lifetime.start.p0(i64 4, ptr %7) #9
  call void @llvm.lifetime.start.p0(i64 4, ptr %8) #9
  %9 = load i32, ptr %5, align 4
  %10 = icmp sgt i32 %9, 2
  br i1 %10, label %11, label %16

11:                                               ; preds = %3
  %12 = load i32, ptr %5, align 4
  %13 = add i32 %12, 1
  store i32 %13, ptr %5, align 4
  %14 = load i32, ptr %4, align 4
  %15 = add i32 %14, 4800
  store i32 %15, ptr %4, align 4
  br label %21

16:                                               ; preds = %3
  %17 = load i32, ptr %5, align 4
  %18 = add i32 %17, 13
  store i32 %18, ptr %5, align 4
  %19 = load i32, ptr %4, align 4
  %20 = add i32 %19, 4799
  store i32 %20, ptr %4, align 4
  br label %21

21:                                               ; preds = %16, %11
  %22 = load i32, ptr %4, align 4
  %23 = sdiv i32 %22, 100
  store i32 %23, ptr %8, align 4
  %24 = load i32, ptr %4, align 4
  %25 = mul i32 %24, 365
  %26 = sub i32 %25, 32167
  store i32 %26, ptr %7, align 4
  %27 = load i32, ptr %4, align 4
  %28 = sdiv i32 %27, 4
  %29 = load i32, ptr %8, align 4
  %30 = sub i32 %28, %29
  %31 = load i32, ptr %8, align 4
  %32 = sdiv i32 %31, 4
  %33 = add i32 %30, %32
  %34 = load i32, ptr %7, align 4
  %35 = add i32 %34, %33
  store i32 %35, ptr %7, align 4
  %36 = load i32, ptr %5, align 4
  %37 = mul i32 7834, %36
  %38 = sdiv i32 %37, 256
  %39 = load i32, ptr %6, align 4
  %40 = add i32 %38, %39
  %41 = load i32, ptr %7, align 4
  %42 = add i32 %41, %40
  store i32 %42, ptr %7, align 4
  %43 = load i32, ptr %7, align 4
  call void @llvm.lifetime.end.p0(i64 4, ptr %8) #9
  call void @llvm.lifetime.end.p0(i64 4, ptr %7) #9
  ret i32 %43
}