; Function Attrs: mustprogress nofree norecurse nosync nounwind willreturn memory(none) uwtable
define i32 @date2j(i32 noundef %0, i32 noundef %1, i32 noundef %2) local_unnamed_addr #3 {
  %4 = icmp sgt i32 %1, 2
  %.015.v = select i1 %4, i32 1, i32 13
  %.015 = add i32 %.015.v, %1
  %.0.v = select i1 %4, i32 4800, i32 4799
  %.0 = add i32 %.0.v, %0
  %.neg = sdiv i32 %.0, -100
  %5 = mul i32 %.0, 365
  %6 = sdiv i32 %.0, 4
  %7 = sdiv i32 %.0, 400
  %8 = mul i32 %.015, 7834
  %9 = sdiv i32 %8, 256
  %10 = add i32 %2, -32167
  %11 = add i32 %10, %5
  %12 = add i32 %11, %6
  %13 = add i32 %12, %.neg
  %14 = add i32 %13, %7
  %15 = add i32 %14, %9
  ret i32 %15
}